; Function Attrs: mustprogress nounwind uwtable
define hidden noundef ptr @_ZN13SharedRuntime20handle_unsafe_accessEP10JavaThreadPh(ptr noundef %0, ptr noundef readnone returned %1) local_unnamed_addr #0 align 2 {
  %3 = getelementptr inbounds i8, ptr %0, i64 1384
  %4 = tail call noundef zeroext i1 @_ZN14HandshakeState29has_async_exception_operationEv(ptr noundef nonnull align 8 dereferenceable(131) %3) #18
  br i1 %4, label %_ZN10JavaThread31set_pending_unsafe_access_errorEv.exit, label %5

5:                                                ; preds = %2
  %6 = tail call noundef ptr @_Z12AllocateHeapm8MEMFLAGSN17AllocFailStrategy13AllocFailEnumE(i64 noundef 16, i8 noundef zeroext 2, i32 noundef 0) #18
  %7 = getelementptr inbounds i8, ptr %6, i64 8
  store ptr @.str.64, ptr %7, align 8
  store ptr getelementptr inbounds inrange(-16, 48) (i8, ptr @_ZTV26UnsafeAccessErrorHandshake, i64 16), ptr %6, align 8
  tail call void @_ZN9Handshake7executeEP21AsyncHandshakeClosureP10JavaThread(ptr noundef nonnull %6, ptr noundef nonnull %0) #18
  br label %_ZN10JavaThread31set_pending_unsafe_access_errorEv.exit

_ZN10JavaThread31set_pending_unsafe_access_errorEv.exit: ; preds = %2, %5
  ret ptr %1
}